target datalayout = "e-m:e-p270:32:32-p271:32:32-p272:64:64-i64:64-i128:128-f80:128-n8:16:32:64-S128"
target triple = "x86_64-pc-linux-gnu"

%class.CompilationMemoryStatisticMark = type { i8 }

; Function Attrs: mustprogress nounwind uwtable
define hidden void @_ZN30CompilationMemoryStatisticMarkD2Ev(ptr noundef nonnull align 1 dereferenceable(1) %0) unnamed_addr #1 align 2 {
  %2 = alloca ptr, align 8
  store ptr %0, ptr %2, align 8
  %3 = load ptr, ptr %2, align 8
  %4 = getelementptr inbounds %class.CompilationMemoryStatisticMark, ptr %3, i32 0, i32 0
  %5 = load i8, ptr %4, align 1
  %6 = trunc i8 %5 to i1
  br i1 %6, label %7, label %8

7:                                                ; preds = %1
  call void @_ZN26CompilationMemoryStatistic18on_end_compilationEv()
  br label %8

8:                                                ; preds = %7, %1
  ret void
}