; Function Attrs: mustprogress nounwind uwtable
define hidden void @_ZN30CompilationMemoryStatisticMarkD2Ev(ptr nocapture noundef nonnull readonly align 1 dereferenceable(1) %0) unnamed_addr #3 align 2 {
  %2 = load i8, ptr %0, align 1
  %3 = trunc i8 %2 to i1
  br i1 %3, label %4, label %5

4:                                                ; preds = %1
  tail call void @_ZN26CompilationMemoryStatistic18on_end_compilationEv()
  br label %5

5:                                                ; preds = %4, %1
  ret void
}